###############################################################################
#                                                                             #
# IAR ELF Linker V6.60.1.5097/W32 for ARM               05/Dec/2014  15:37:06 #
# Copyright 2007-2013 IAR Systems AB.                                         #
#                                                                             #
#    Output file  =  H:\Tevtron\ARM\ADC W LCD\arm\examples\ST\STM32F05x\stm32 #
#                    f0xx_stdperiph_lib\Project\STM32F0xx_StdPeriph_Examples\ #
#                    ADC\ADC1_AnalogWatchdog\STM320518-EVAL\Exe\STM32F0508-EV #
#                    AL.out                                                   #
#    Map file     =  H:\Tevtron\ARM\ADC W LCD\arm\examples\ST\STM32F05x\stm32 #
#                    f0xx_stdperiph_lib\Project\STM32F0xx_StdPeriph_Examples\ #
#                    ADC\ADC1_AnalogWatchdog\STM320518-EVAL\List\STM32F0508-E #
#                    VAL.map                                                  #
#    Command line =  "H:\Tevtron\ARM\ADC W LCD\arm\examples\ST\STM32F05x\stm3 #
#                    2f0xx_stdperiph_lib\Project\STM32F0xx_StdPeriph_Examples #
#                    \ADC\ADC1_AnalogWatchdog\STM320518-EVAL\Obj\main.o"      #
#                    "H:\Tevtron\ARM\ADC W LCD\arm\examples\ST\STM32F05x\stm3 #
#                    2f0xx_stdperiph_lib\Project\STM32F0xx_StdPeriph_Examples #
#                    \ADC\ADC1_AnalogWatchdog\STM320518-EVAL\Obj\startup_stm3 #
#                    2f0xx.o" "H:\Tevtron\ARM\ADC W                           #
#                    LCD\arm\examples\ST\STM32F05x\stm32f0xx_stdperiph_lib\Pr #
#                    oject\STM32F0xx_StdPeriph_Examples\ADC\ADC1_AnalogWatchd #
#                    og\STM320518-EVAL\Obj\stm320518_eval.o"                  #
#                    "H:\Tevtron\ARM\ADC W LCD\arm\examples\ST\STM32F05x\stm3 #
#                    2f0xx_stdperiph_lib\Project\STM32F0xx_StdPeriph_Examples #
#                    \ADC\ADC1_AnalogWatchdog\STM320518-EVAL\Obj\stm320518_ev #
#                    al_cec.o" "H:\Tevtron\ARM\ADC W                          #
#                    LCD\arm\examples\ST\STM32F05x\stm32f0xx_stdperiph_lib\Pr #
#                    oject\STM32F0xx_StdPeriph_Examples\ADC\ADC1_AnalogWatchd #
#                    og\STM320518-EVAL\Obj\stm320518_eval_i2c_ee.o"           #
#                    "H:\Tevtron\ARM\ADC W LCD\arm\examples\ST\STM32F05x\stm3 #
#                    2f0xx_stdperiph_lib\Project\STM32F0xx_StdPeriph_Examples #
#                    \ADC\ADC1_AnalogWatchdog\STM320518-EVAL\Obj\stm320518_ev #
#                    al_i2c_tsensor.o" "H:\Tevtron\ARM\ADC W                  #
#                    LCD\arm\examples\ST\STM32F05x\stm32f0xx_stdperiph_lib\Pr #
#                    oject\STM32F0xx_StdPeriph_Examples\ADC\ADC1_AnalogWatchd #
#                    og\STM320518-EVAL\Obj\stm320518_eval_lcd.o"              #
#                    "H:\Tevtron\ARM\ADC W LCD\arm\examples\ST\STM32F05x\stm3 #
#                    2f0xx_stdperiph_lib\Project\STM32F0xx_StdPeriph_Examples #
#                    \ADC\ADC1_AnalogWatchdog\STM320518-EVAL\Obj\stm320518_ev #
#                    al_spi_sd.o" "H:\Tevtron\ARM\ADC W                       #
#                    LCD\arm\examples\ST\STM32F05x\stm32f0xx_stdperiph_lib\Pr #
#                    oject\STM32F0xx_StdPeriph_Examples\ADC\ADC1_AnalogWatchd #
#                    og\STM320518-EVAL\Obj\stm32f0xx_adc.o"                   #
#                    "H:\Tevtron\ARM\ADC W LCD\arm\examples\ST\STM32F05x\stm3 #
#                    2f0xx_stdperiph_lib\Project\STM32F0xx_StdPeriph_Examples #
#                    \ADC\ADC1_AnalogWatchdog\STM320518-EVAL\Obj\stm32f0xx_ce #
#                    c.o" "H:\Tevtron\ARM\ADC W LCD\arm\examples\ST\STM32F05x #
#                    \stm32f0xx_stdperiph_lib\Project\STM32F0xx_StdPeriph_Exa #
#                    mples\ADC\ADC1_AnalogWatchdog\STM320518-EVAL\Obj\stm32f0 #
#                    xx_comp.o" "H:\Tevtron\ARM\ADC W                         #
#                    LCD\arm\examples\ST\STM32F05x\stm32f0xx_stdperiph_lib\Pr #
#                    oject\STM32F0xx_StdPeriph_Examples\ADC\ADC1_AnalogWatchd #
#                    og\STM320518-EVAL\Obj\stm32f0xx_crc.o"                   #
#                    "H:\Tevtron\ARM\ADC W LCD\arm\examples\ST\STM32F05x\stm3 #
#                    2f0xx_stdperiph_lib\Project\STM32F0xx_StdPeriph_Examples #
#                    \ADC\ADC1_AnalogWatchdog\STM320518-EVAL\Obj\stm32f0xx_da #
#                    c.o" "H:\Tevtron\ARM\ADC W LCD\arm\examples\ST\STM32F05x #
#                    \stm32f0xx_stdperiph_lib\Project\STM32F0xx_StdPeriph_Exa #
#                    mples\ADC\ADC1_AnalogWatchdog\STM320518-EVAL\Obj\stm32f0 #
#                    xx_dbgmcu.o" "H:\Tevtron\ARM\ADC W                       #
#                    LCD\arm\examples\ST\STM32F05x\stm32f0xx_stdperiph_lib\Pr #
#                    oject\STM32F0xx_StdPeriph_Examples\ADC\ADC1_AnalogWatchd #
#                    og\STM320518-EVAL\Obj\stm32f0xx_dma.o"                   #
#                    "H:\Tevtron\ARM\ADC W LCD\arm\examples\ST\STM32F05x\stm3 #
#                    2f0xx_stdperiph_lib\Project\STM32F0xx_StdPeriph_Examples #
#                    \ADC\ADC1_AnalogWatchdog\STM320518-EVAL\Obj\stm32f0xx_ex #
#                    ti.o" "H:\Tevtron\ARM\ADC W                              #
#                    LCD\arm\examples\ST\STM32F05x\stm32f0xx_stdperiph_lib\Pr #
#                    oject\STM32F0xx_StdPeriph_Examples\ADC\ADC1_AnalogWatchd #
#                    og\STM320518-EVAL\Obj\stm32f0xx_flash.o"                 #
#                    "H:\Tevtron\ARM\ADC W LCD\arm\examples\ST\STM32F05x\stm3 #
#                    2f0xx_stdperiph_lib\Project\STM32F0xx_StdPeriph_Examples #
#                    \ADC\ADC1_AnalogWatchdog\STM320518-EVAL\Obj\stm32f0xx_gp #
#                    io.o" "H:\Tevtron\ARM\ADC W                              #
#                    LCD\arm\examples\ST\STM32F05x\stm32f0xx_stdperiph_lib\Pr #
#                    oject\STM32F0xx_StdPeriph_Examples\ADC\ADC1_AnalogWatchd #
#                    og\STM320518-EVAL\Obj\stm32f0xx_i2c.o"                   #
#                    "H:\Tevtron\ARM\ADC W LCD\arm\examples\ST\STM32F05x\stm3 #
#                    2f0xx_stdperiph_lib\Project\STM32F0xx_StdPeriph_Examples #
#                    \ADC\ADC1_AnalogWatchdog\STM320518-EVAL\Obj\stm32f0xx_it #
#                    .o" "H:\Tevtron\ARM\ADC W LCD\arm\examples\ST\STM32F05x\ #
#                    stm32f0xx_stdperiph_lib\Project\STM32F0xx_StdPeriph_Exam #
#                    ples\ADC\ADC1_AnalogWatchdog\STM320518-EVAL\Obj\stm32f0x #
#                    x_iwdg.o" "H:\Tevtron\ARM\ADC W                          #
#                    LCD\arm\examples\ST\STM32F05x\stm32f0xx_stdperiph_lib\Pr #
#                    oject\STM32F0xx_StdPeriph_Examples\ADC\ADC1_AnalogWatchd #
#                    og\STM320518-EVAL\Obj\stm32f0xx_misc.o"                  #
#                    "H:\Tevtron\ARM\ADC W LCD\arm\examples\ST\STM32F05x\stm3 #
#                    2f0xx_stdperiph_lib\Project\STM32F0xx_StdPeriph_Examples #
#                    \ADC\ADC1_AnalogWatchdog\STM320518-EVAL\Obj\stm32f0xx_pw #
#                    r.o" "H:\Tevtron\ARM\ADC W LCD\arm\examples\ST\STM32F05x #
#                    \stm32f0xx_stdperiph_lib\Project\STM32F0xx_StdPeriph_Exa #
#                    mples\ADC\ADC1_AnalogWatchdog\STM320518-EVAL\Obj\stm32f0 #
#                    xx_rcc.o" "H:\Tevtron\ARM\ADC W                          #
#                    LCD\arm\examples\ST\STM32F05x\stm32f0xx_stdperiph_lib\Pr #
#                    oject\STM32F0xx_StdPeriph_Examples\ADC\ADC1_AnalogWatchd #
#                    og\STM320518-EVAL\Obj\stm32f0xx_rtc.o"                   #
#                    "H:\Tevtron\ARM\ADC W LCD\arm\examples\ST\STM32F05x\stm3 #
#                    2f0xx_stdperiph_lib\Project\STM32F0xx_StdPeriph_Examples #
#                    \ADC\ADC1_AnalogWatchdog\STM320518-EVAL\Obj\stm32f0xx_sp #
#                    i.o" "H:\Tevtron\ARM\ADC W LCD\arm\examples\ST\STM32F05x #
#                    \stm32f0xx_stdperiph_lib\Project\STM32F0xx_StdPeriph_Exa #
#                    mples\ADC\ADC1_AnalogWatchdog\STM320518-EVAL\Obj\stm32f0 #
#                    xx_syscfg.o" "H:\Tevtron\ARM\ADC W                       #
#                    LCD\arm\examples\ST\STM32F05x\stm32f0xx_stdperiph_lib\Pr #
#                    oject\STM32F0xx_StdPeriph_Examples\ADC\ADC1_AnalogWatchd #
#                    og\STM320518-EVAL\Obj\stm32f0xx_tim.o"                   #
#                    "H:\Tevtron\ARM\ADC W LCD\arm\examples\ST\STM32F05x\stm3 #
#                    2f0xx_stdperiph_lib\Project\STM32F0xx_StdPeriph_Examples #
#                    \ADC\ADC1_AnalogWatchdog\STM320518-EVAL\Obj\stm32f0xx_us #
#                    art.o" "H:\Tevtron\ARM\ADC W                             #
#                    LCD\arm\examples\ST\STM32F05x\stm32f0xx_stdperiph_lib\Pr #
#                    oject\STM32F0xx_StdPeriph_Examples\ADC\ADC1_AnalogWatchd #
#                    og\STM320518-EVAL\Obj\stm32f0xx_wwdg.o"                  #
#                    "H:\Tevtron\ARM\ADC W LCD\arm\examples\ST\STM32F05x\stm3 #
#                    2f0xx_stdperiph_lib\Project\STM32F0xx_StdPeriph_Examples #
#                    \ADC\ADC1_AnalogWatchdog\STM320518-EVAL\Obj\system_stm32 #
#                    f0xx.o" --redirect _Printf=_PrintfFull --redirect        #
#                    _Scanf=_ScanfFull -o "H:\Tevtron\ARM\ADC W               #
#                    LCD\arm\examples\ST\STM32F05x\stm32f0xx_stdperiph_lib\Pr #
#                    oject\STM32F0xx_StdPeriph_Examples\ADC\ADC1_AnalogWatchd #
#                    og\STM320518-EVAL\Exe\STM32F0508-EVAL.out" --map         #
#                    "H:\Tevtron\ARM\ADC W LCD\arm\examples\ST\STM32F05x\stm3 #
#                    2f0xx_stdperiph_lib\Project\STM32F0xx_StdPeriph_Examples #
#                    \ADC\ADC1_AnalogWatchdog\STM320518-EVAL\List\STM32F0508- #
#                    EVAL.map" --config "C:\Program Files\IAR                 #
#                    Systems\Embedded Workbench 6.5\arm\config\linker\ST\stm3 #
#                    2f051x8.icf" --semihosting --entry __iar_program_start   #
#                    --vfe                                                    #
#                                                                             #
#                                                                             #
###############################################################################

*******************************************************************************
*** RUNTIME MODEL ATTRIBUTES
***

CppFlavor       = *
__SystemLibrary = DLib


*******************************************************************************
*** PLACEMENT SUMMARY
***

"A1":  place at 0x08000000 { ro section .intvec };
"P1":  place in [from 0x08000000 to 0x0800ffff] { ro };
"P2":  place in [from 0x20000000 to 0x20001fff] { rw, block CSTACK, block HEAP };

  Section            Kind        Address    Size  Object
  -------            ----        -------    ----  ------
"A1":                                       0xc0
  .intvec            ro code  0x08000000    0xc0  startup_stm32f0xx.o [1]
                            - 0x080000c0    0xc0

"P1":                                     0x18e8
  .rodata            const    0x080000c0  0x11d0  stm320518_eval_lcd.o [1]
  .text              ro code  0x08001290   0x1c2  main.o [1]
  .text              ro code  0x08001452    0x2a  zero_init3.o [5]
  .text              ro code  0x0800147c    0x48  stm32f0xx_rcc.o [1]
  .text              ro code  0x080014c4    0x76  stm32f0xx_gpio.o [1]
  .text              ro code  0x0800153a     0x2  startup_stm32f0xx.o [1]
  .text              ro code  0x0800153c    0xee  stm32f0xx_adc.o [1]
  .text              ro code  0x0800162a    0xe0  I32DivModFast.o [5]
  .text              ro code  0x0800170a     0x2  startup_stm32f0xx.o [1]
  .text              ro code  0x0800170c     0x2  IntDivZer.o [5]
  .text              ro code  0x0800170e     0x2  startup_stm32f0xx.o [1]
  .text              ro code  0x08001710    0xe8  system_stm32f0xx.o [1]
  .text              ro code  0x080017f8    0x3c  stm32f0xx_it.o [1]
  .text              ro code  0x08001834    0x2c  stm320518_eval.o [1]
  .text              ro code  0x08001860    0x14  stm320518_eval_lcd.o [1]
  .text              ro code  0x08001874    0x30  copy_init3.o [5]
  .text              ro code  0x080018a4    0x28  data_init.o [5]
  .iar.init_table    const    0x080018cc    0x24  - Linker created -
  .text              ro code  0x080018f0    0x1a  cmain.o [5]
  .text              ro code  0x0800190a     0x4  low_level_init.o [3]
  .text              ro code  0x0800190e     0x8  exit.o [3]
  .text              ro code  0x08001916     0x2  startup_stm32f0xx.o [1]
  .text              ro code  0x08001918     0xa  cexit.o [5]
  .text              ro code  0x08001922     0x2  startup_stm32f0xx.o [1]
  .text              ro code  0x08001924    0x14  exit.o [6]
  .text              ro code  0x08001938    0x10  startup_stm32f0xx.o [1]
  .text              ro code  0x08001948     0xc  cstartup_M.o [5]
  .text              ro code  0x08001954     0x2  startup_stm32f0xx.o [1]
  .text              ro code  0x08001956     0x2  startup_stm32f0xx.o [1]
  .text              ro code  0x08001958     0x2  startup_stm32f0xx.o [1]
  .text              ro code  0x0800195a     0x2  startup_stm32f0xx.o [1]
  .text              ro code  0x0800195c     0x2  startup_stm32f0xx.o [1]
  .text              ro code  0x0800195e     0x2  startup_stm32f0xx.o [1]
  .text              ro code  0x08001960     0x2  startup_stm32f0xx.o [1]
  .text              ro code  0x08001962     0x2  startup_stm32f0xx.o [1]
  .text              ro code  0x08001964     0x2  startup_stm32f0xx.o [1]
  .text              ro code  0x08001966     0x2  startup_stm32f0xx.o [1]
  .text              ro code  0x08001968     0x2  startup_stm32f0xx.o [1]
  .text              ro code  0x0800196a     0x2  startup_stm32f0xx.o [1]
  .text              ro code  0x0800196c     0x2  startup_stm32f0xx.o [1]
  .text              ro code  0x0800196e     0x2  startup_stm32f0xx.o [1]
  .text              ro code  0x08001970     0x2  startup_stm32f0xx.o [1]
  .text              ro code  0x08001972     0x2  startup_stm32f0xx.o [1]
  .text              ro code  0x08001974     0x2  startup_stm32f0xx.o [1]
  .text              ro code  0x08001976     0x2  startup_stm32f0xx.o [1]
  .text              ro code  0x08001978     0x2  startup_stm32f0xx.o [1]
  .text              ro code  0x0800197a     0x2  startup_stm32f0xx.o [1]
  .text              ro code  0x0800197c     0x2  startup_stm32f0xx.o [1]
  .text              ro code  0x0800197e     0x2  startup_stm32f0xx.o [1]
  .text              ro code  0x08001980     0x2  startup_stm32f0xx.o [1]
  .rodata            const    0x08001982     0x0  zero_init3.o [5]
  .rodata            const    0x08001982     0x0  copy_init3.o [5]
  Initializer bytes  ro data  0x08001984    0x24  <for P2 s0>
                            - 0x080019a8  0x18e8

"P2", part 1 of 3:                          0x24
  P2 s0                       0x20000000    0x24  <Init block>
    .data            inited   0x20000000    0x14  stm320518_eval_lcd.o [1]
    .data            inited   0x20000014    0x10  stm320518_eval.o [1]
                            - 0x20000024    0x24

"P2", part 2 of 3:                          0x24
  .bss               zero     0x20000024    0x20  main.o [1]
                            - 0x20000044    0x20

"P2", part 3 of 3:                         0x800
  CSTACK                      0x20000048   0x800  <Block>
    CSTACK           uninit   0x20000048   0x800  <Block tail>
                            - 0x20000848   0x800


*******************************************************************************
*** INIT TABLE
***

          Address     Size
          -------     ----
Zero (__iar_zero_init3)
    1 destination range, total size 0x20:
          0x20000024  0x20

Copy (__iar_copy_init3)
    1 source range, total size 0x24:
          0x08001984  0x24
    1 destination range, total size 0x24:
          0x20000000  0x24



*******************************************************************************
*** MODULE SUMMARY
***

    Module                ro code  ro data  rw data
    ------                -------  -------  -------
H:\Tevtron\ARM\ADC W LCD\arm\examples\ST\STM32F05x\stm32f0xx_stdperiph_lib\Project\STM32F0xx_StdPeriph_Examples\ADC\ADC1_AnalogWatchdog\STM320518-EVAL\Obj: [1]
    main.o                    450                32
    startup_stm32f0xx.o       264
    stm320518_eval.o           44       16       16
    stm320518_eval_lcd.o       20    4 580       20
    stm32f0xx_adc.o           238
    stm32f0xx_gpio.o          118
    stm32f0xx_it.o             60
    stm32f0xx_rcc.o            72
    system_stm32f0xx.o        232
    -----------------------------------------------
    Total:                  1 498    4 596       68

command line: [2]
    -----------------------------------------------
    Total:

dl6M_tlf.a: [3]
    exit.o                      8
    low_level_init.o            4
    -----------------------------------------------
    Total:                     12

m6M_tl.a: [4]
    -----------------------------------------------
    Total:

rt6M_tl.a: [5]
    I32DivModFast.o           224
    IntDivZer.o                 2
    cexit.o                    10
    cmain.o                    26
    copy_init3.o               48
    cstartup_M.o               12
    data_init.o                40
    zero_init3.o               42
    -----------------------------------------------
    Total:                    404

shb_l.a: [6]
    exit.o                     20
    -----------------------------------------------
    Total:                     20

    Linker created                      38    2 048
---------------------------------------------------
    Grand Total:            1 934    4 634    2 116


*******************************************************************************
*** ENTRY LIST
***

Entry                      Address    Size  Type      Object
-----                      -------    ----  ----      ------
?main                   0x080018f1          Code  Gb  cmain.o [5]
ADC1_COMP_IRQHandler    0x08001803    0x2e  Code  Gb  stm32f0xx_it.o [1]
ADC_ChannelConfig       0x080015a1     0xa  Code  Gb  stm32f0xx_adc.o [1]
ADC_ClearITPendingBit   0x08001627     0x4  Code  Gb  stm32f0xx_adc.o [1]
ADC_Cmd                 0x0800158f    0x12  Code  Gb  stm32f0xx_adc.o [1]
ADC_DeInit              0x0800153d    0x1e  Code  Gb  stm32f0xx_adc.o [1]
ADC_GetCalibrationFactor
                        0x080015ab    0x2c  Code  Gb  stm32f0xx_adc.o [1]
ADC_GetConversionValue  0x080015e1     0x6  Code  Gb  stm32f0xx_adc.o [1]
ADC_GetFlagStatus       0x080015e7    0x1a  Code  Gb  stm32f0xx_adc.o [1]
ADC_GetITStatus         0x08001611    0x16  Code  Gb  stm32f0xx_adc.o [1]
ADC_Init                0x0800155b    0x24  Code  Gb  stm32f0xx_adc.o [1]
ADC_InitStructure       0x2000002c    0x18  Data  Gb  main.o [1]
ADC_StartOfConversion   0x080015d7     0xa  Code  Gb  stm32f0xx_adc.o [1]
ADC_StructInit          0x0800157f    0x10  Code  Gb  stm32f0xx_adc.o [1]
ASCII16x24_Table        0x080000c0  0x11d0  Data  Gb  stm320518_eval_lcd.o [1]
BackColor               0x20000002     0x2  Data  Lc  stm320518_eval_lcd.o [1]
CSTACK$$Base            0x20000048           --   Gb  - Linker created -
CSTACK$$Limit           0x20000848           --   Gb  - Linker created -
Font16x24               0x2000000c     0x8  Data  Gb  stm320518_eval_lcd.o [1]
GPIO_Init               0x080014c5    0x6a  Code  Gb  stm32f0xx_gpio.o [1]
GPIO_InitStructure      0x20000024     0x8  Data  Gb  main.o [1]
GPIO_PIN                0x08001854     0x8  Data  Gb  stm320518_eval.o [1]
GPIO_PORT               0x20000014    0x10  Data  Gb  stm320518_eval.o [1]
GPIO_ResetBits          0x08001533     0x4  Code  Gb  stm32f0xx_gpio.o [1]
GPIO_SetBits            0x0800152f     0x4  Code  Gb  stm32f0xx_gpio.o [1]
GPIO_Write              0x08001537     0x4  Code  Gb  stm32f0xx_gpio.o [1]
HardFault_Handler       0x080017fb     0x2  Code  Gb  stm32f0xx_it.o [1]
LCDType                 0x20000008     0x4  Data  Gb  stm320518_eval_lcd.o [1]
LCD_Currentfonts        0x20000004     0x4  Data  Lc  stm320518_eval_lcd.o [1]
LCD_SetTextColor        0x08001861     0xe  Code  Gb  stm320518_eval_lcd.o [1]
NMI_Handler             0x080017f9     0x2  Code  Gb  stm32f0xx_it.o [1]
PendSV_Handler          0x080017ff     0x2  Code  Gb  stm32f0xx_it.o [1]
RCC_AHBPeriphClockCmd   0x0800147d    0x14  Code  Gb  stm32f0xx_rcc.o [1]
RCC_APB2PeriphClockCmd  0x08001491    0x14  Code  Gb  stm32f0xx_rcc.o [1]
RCC_APB2PeriphResetCmd  0x080014a5    0x14  Code  Gb  stm32f0xx_rcc.o [1]
Region$$Table$$Base     0x080018cc           --   Gb  - Linker created -
Region$$Table$$Limit    0x080018f0           --   Gb  - Linker created -
STM_EVAL_LEDOff         0x08001845    0x10  Code  Gb  stm320518_eval.o [1]
STM_EVAL_LEDOn          0x08001835    0x10  Code  Gb  stm320518_eval.o [1]
SVC_Handler             0x080017fd     0x2  Code  Gb  stm32f0xx_it.o [1]
SysTick_Handler         0x08001801     0x2  Code  Gb  stm32f0xx_it.o [1]
SystemInit              0x08001711    0xcc  Code  Gb  system_stm32f0xx.o [1]
TextColor               0x20000000     0x2  Data  Lc  stm320518_eval_lcd.o [1]
__ICFEDIT_region_RAM_end__ {Abs}
                        0x20001fff           --   Gb  command line/config [2]
__ICFEDIT_region_RAM_start__ {Abs}
                        0x20000000           --   Gb  command line/config [2]
__aeabi_idiv            0x08001657          Code  Gb  I32DivModFast.o [5]
__aeabi_idiv0           0x0800170d          Code  Gb  IntDivZer.o [5]
__aeabi_idivmod         0x08001657          Code  Gb  I32DivModFast.o [5]
__aeabi_uidiv           0x0800165d          Code  Gb  I32DivModFast.o [5]
__aeabi_uidivmod        0x0800165d          Code  Gb  I32DivModFast.o [5]
__cmain                 0x080018f1          Code  Gb  cmain.o [5]
__exit                  0x08001925    0x14  Code  Gb  exit.o [6]
__iar_copy_init3        0x08001875    0x30  Code  Gb  copy_init3.o [5]
__iar_data_init3        0x080018a5    0x28  Code  Gb  data_init.o [5]
__iar_program_start     0x08001949          Code  Gb  cstartup_M.o [5]
__iar_zero_init3        0x08001453    0x2a  Code  Gb  zero_init3.o [5]
__low_level_init        0x0800190b     0x4  Code  Gb  low_level_init.o [3]
__vector_table          0x08000000          Data  Gb  startup_stm32f0xx.o [1]
_call_main              0x080018fd          Code  Gb  cmain.o [5]
_exit                   0x08001919          Code  Gb  cexit.o [5]
_main                   0x08001907          Code  Gb  cmain.o [5]
clock                   0x080013db     0x2  Code  Gb  main.o [1]
command                 0x080013dd    0x18  Code  Gb  main.o [1]
display                 0x0800140d    0x1c  Code  Gb  main.o [1]
exit                    0x0800190f     0x8  Code  Gb  exit.o [3]
lcd_string              0x0800143f    0x14  Code  Gb  main.o [1]
main                    0x08001291   0x14a  Code  Gb  main.o [1]


[1] = H:\Tevtron\ARM\ADC W LCD\arm\examples\ST\STM32F05x\stm32f0xx_stdperiph_lib\Project\STM32F0xx_StdPeriph_Examples\ADC\ADC1_AnalogWatchdog\STM320518-EVAL\Obj
[2] = command line
[3] = dl6M_tlf.a
[4] = m6M_tl.a
[5] = rt6M_tl.a
[6] = shb_l.a

  1 934 bytes of readonly  code memory
  4 634 bytes of readonly  data memory
  2 116 bytes of readwrite data memory

Errors: none
Warnings: none
